; Function Attrs: nounwind uwtable
define internal range(i32 1, 3) i32 @luaB_load(ptr noundef %0) #0 {
  %2 = alloca i64, align 8
  call void @llvm.lifetime.start.p0(i64 8, ptr nonnull %2) #9
  %3 = call ptr @lua_tolstring(ptr noundef %0, i32 noundef 1, ptr noundef nonnull %2) #9
  %4 = call ptr @luaL_optlstring(ptr noundef %0, i32 noundef 3, ptr noundef nonnull @.str.43, ptr noundef null) #9
  %5 = call ptr @strchr(ptr noundef nonnull dereferenceable(1) %4, i32 noundef 66) #10
  %.not.i = icmp eq ptr %5, null
  br i1 %.not.i, label %getMode.exit, label %6

6:                                                ; preds = %1
  %7 = call i32 @luaL_argerror(ptr noundef %0, i32 noundef 3, ptr noundef nonnull @.str.44) #9
  br label %getMode.exit

getMode.exit:                                     ; preds = %1, %6
  %8 = call i32 @lua_type(ptr noundef %0, i32 noundef 4) #9
  %.not19 = icmp eq ptr %3, null
  br i1 %.not19, label %13, label %9

9:                                                ; preds = %getMode.exit
  %10 = call ptr @luaL_optlstring(ptr noundef %0, i32 noundef 2, ptr noundef nonnull %3, ptr noundef null) #9
  %11 = load i64, ptr %2, align 8, !tbaa !9
  %12 = call i32 @luaL_loadbufferx(ptr noundef %0, ptr noundef nonnull %3, i64 noundef %11, ptr noundef %10, ptr noundef nonnull %4) #9
  br label %16

13:                                               ; preds = %getMode.exit
  %14 = call ptr @luaL_optlstring(ptr noundef %0, i32 noundef 2, ptr noundef nonnull @.str.45, ptr noundef null) #9
  call void @luaL_checktype(ptr noundef %0, i32 noundef 1, i32 noundef 6) #9
  call void @lua_settop(ptr noundef %0, i32 noundef 5) #9
  %15 = call i32 @lua_load(ptr noundef %0, ptr noundef nonnull @generic_reader, ptr noundef null, ptr noundef %14, ptr noundef nonnull %4) #9
  br label %16

16:                                               ; preds = %13, %9
  %.0 = phi i32 [ %12, %9 ], [ %15, %13 ]
  %17 = icmp eq i32 %.0, 0
  br i1 %17, label %18, label %22, !prof !8

18:                                               ; preds = %16
  %.not = icmp eq i32 %8, -1
  br i1 %.not, label %load_aux.exit, label %19

19:                                               ; preds = %18
  call void @lua_pushvalue(ptr noundef %0, i32 noundef range(i32 0, 5) 4) #9
  %20 = call ptr @lua_setupvalue(ptr noundef %0, i32 noundef -2, i32 noundef 1) #9
  %.not9.i = icmp eq ptr %20, null
  br i1 %.not9.i, label %21, label %load_aux.exit

21:                                               ; preds = %19
  call void @lua_settop(ptr noundef %0, i32 noundef -2) #9
  br label %load_aux.exit

22:                                               ; preds = %16
  call void @lua_pushnil(ptr noundef %0) #9
  call void @lua_rotate(ptr noundef %0, i32 noundef -2, i32 noundef 1) #9
  br label %load_aux.exit

load_aux.exit:                                    ; preds = %18, %19, %21, %22
  %.0.i = phi i32 [ 2, %22 ], [ 1, %19 ], [ 1, %21 ], [ 1, %18 ]
  call void @llvm.lifetime.end.p0(i64 8, ptr nonnull %2) #9
  ret i32 %.0.i
}